#include <math.h>
#include <stdio.h>
#include <stdlib.h>
#include <string.h>

int main()
{
	char s[80],*h,*t,*f;
	int i,j,len,flag=1;
	scanf("%s",s);
	len=strlen(s);
	for(i=2;i<=len;i++)
	{
		f=s;
		for(;f<=(s+len-i);f++)
		{
			h=f;
			t=h+i-1;
			for(j=1;j<=(int)(i/2);j++,h++,t--)
			{
				flag=1;
				if(*h!=*t)
				{
					flag=0;
					break;
				}
			}
			if(flag)
			{
				h=f;
				for(;h<f+i;h++)
					printf("%c",*h);
				printf("\n");
			}
		}
	}
	return 0;
}