; ModuleID = '49/196.c'
source_filename = "49/196.c"
target datalayout = "e-m:e-p270:32:32-p271:32:32-p272:64:64-i64:64-f80:128-n8:16:32:64-S128"
target triple = "x86_64-pc-linux-gnu"

@.str = private unnamed_addr constant [3 x i8] c"%s\00", align 1
@.str.1 = private unnamed_addr constant [3 x i8] c"%c\00", align 1
@.str.2 = private unnamed_addr constant [2 x i8] c"\0A\00", align 1

; Function Attrs: noinline nounwind uwtable
define dso_local i32 @main() #0 {
  %1 = alloca i32, align 4
  %2 = alloca [80 x i8], align 16
  %3 = alloca i8*, align 8
  %4 = alloca i8*, align 8
  %5 = alloca i8*, align 8
  %6 = alloca i32, align 4
  %7 = alloca i32, align 4
  %8 = alloca i32, align 4
  %9 = alloca i32, align 4
  store i32 0, i32* %1, align 4
  store i32 1, i32* %9, align 4
  %10 = getelementptr inbounds [80 x i8], [80 x i8]* %2, i64 0, i64 0
  %11 = call i32 (i8*, ...) @__isoc99_scanf(i8* getelementptr inbounds ([3 x i8], [3 x i8]* @.str, i64 0, i64 0), i8* %10)
  %12 = getelementptr inbounds [80 x i8], [80 x i8]* %2, i64 0, i64 0
  %13 = call i64 @strlen(i8* %12) #3
  %14 = trunc i64 %13 to i32
  store i32 %14, i32* %8, align 4
  store i32 2, i32* %6, align 4
  br label %15

15:                                               ; preds = %88, %0
  %16 = load i32, i32* %6, align 4
  %17 = load i32, i32* %8, align 4
  %18 = icmp sle i32 %16, %17
  br i1 %18, label %19, label %91

19:                                               ; preds = %15
  %20 = getelementptr inbounds [80 x i8], [80 x i8]* %2, i64 0, i64 0
  store i8* %20, i8** %5, align 8
  br label %21

21:                                               ; preds = %84, %19
  %22 = load i8*, i8** %5, align 8
  %23 = getelementptr inbounds [80 x i8], [80 x i8]* %2, i64 0, i64 0
  %24 = load i32, i32* %8, align 4
  %25 = sext i32 %24 to i64
  %26 = getelementptr inbounds i8, i8* %23, i64 %25
  %27 = load i32, i32* %6, align 4
  %28 = sext i32 %27 to i64
  %29 = sub i64 0, %28
  %30 = getelementptr inbounds i8, i8* %26, i64 %29
  %31 = icmp ule i8* %22, %30
  br i1 %31, label %32, label %87

32:                                               ; preds = %21
  %33 = load i8*, i8** %5, align 8
  store i8* %33, i8** %3, align 8
  %34 = load i8*, i8** %3, align 8
  %35 = load i32, i32* %6, align 4
  %36 = sext i32 %35 to i64
  %37 = getelementptr inbounds i8, i8* %34, i64 %36
  %38 = getelementptr inbounds i8, i8* %37, i64 -1
  store i8* %38, i8** %4, align 8
  store i32 1, i32* %7, align 4
  br label %39

39:                                               ; preds = %54, %32
  %40 = load i32, i32* %7, align 4
  %41 = load i32, i32* %6, align 4
  %42 = sdiv i32 %41, 2
  %43 = icmp sle i32 %40, %42
  br i1 %43, label %44, label %61

44:                                               ; preds = %39
  store i32 1, i32* %9, align 4
  %45 = load i8*, i8** %3, align 8
  %46 = load i8, i8* %45, align 1
  %47 = sext i8 %46 to i32
  %48 = load i8*, i8** %4, align 8
  %49 = load i8, i8* %48, align 1
  %50 = sext i8 %49 to i32
  %51 = icmp ne i32 %47, %50
  br i1 %51, label %52, label %53

52:                                               ; preds = %44
  store i32 0, i32* %9, align 4
  br label %61

53:                                               ; preds = %44
  br label %54

54:                                               ; preds = %53
  %55 = load i32, i32* %7, align 4
  %56 = add nsw i32 %55, 1
  store i32 %56, i32* %7, align 4
  %57 = load i8*, i8** %3, align 8
  %58 = getelementptr inbounds i8, i8* %57, i32 1
  store i8* %58, i8** %3, align 8
  %59 = load i8*, i8** %4, align 8
  %60 = getelementptr inbounds i8, i8* %59, i32 -1
  store i8* %60, i8** %4, align 8
  br label %39

61:                                               ; preds = %52, %39
  %62 = load i32, i32* %9, align 4
  %63 = icmp ne i32 %62, 0
  br i1 %63, label %64, label %83

64:                                               ; preds = %61
  %65 = load i8*, i8** %5, align 8
  store i8* %65, i8** %3, align 8
  br label %66

66:                                               ; preds = %78, %64
  %67 = load i8*, i8** %3, align 8
  %68 = load i8*, i8** %5, align 8
  %69 = load i32, i32* %6, align 4
  %70 = sext i32 %69 to i64
  %71 = getelementptr inbounds i8, i8* %68, i64 %70
  %72 = icmp ult i8* %67, %71
  br i1 %72, label %73, label %81

73:                                               ; preds = %66
  %74 = load i8*, i8** %3, align 8
  %75 = load i8, i8* %74, align 1
  %76 = sext i8 %75 to i32
  %77 = call i32 (i8*, ...) @printf(i8* getelementptr inbounds ([3 x i8], [3 x i8]* @.str.1, i64 0, i64 0), i32 %76)
  br label %78

78:                                               ; preds = %73
  %79 = load i8*, i8** %3, align 8
  %80 = getelementptr inbounds i8, i8* %79, i32 1
  store i8* %80, i8** %3, align 8
  br label %66

81:                                               ; preds = %66
  %82 = call i32 (i8*, ...) @printf(i8* getelementptr inbounds ([2 x i8], [2 x i8]* @.str.2, i64 0, i64 0))
  br label %83

83:                                               ; preds = %81, %61
  br label %84

84:                                               ; preds = %83
  %85 = load i8*, i8** %5, align 8
  %86 = getelementptr inbounds i8, i8* %85, i32 1
  store i8* %86, i8** %5, align 8
  br label %21

87:                                               ; preds = %21
  br label %88

88:                                               ; preds = %87
  %89 = load i32, i32* %6, align 4
  %90 = add nsw i32 %89, 1
  store i32 %90, i32* %6, align 4
  br label %15

91:                                               ; preds = %15
  ret i32 0
}

declare dso_local i32 @__isoc99_scanf(i8*, ...) #1

; Function Attrs: nounwind readonly
declare dso_local i64 @strlen(i8*) #2

declare dso_local i32 @printf(i8*, ...) #1


!llvm.module.flags = !{!0}
!llvm.ident = !{!1}

!0 = !{i32 1, !"wchar_size", i32 4}
!1 = !{!"clang version 10.0.0-4ubuntu1 "}
