; ModuleID = 'source-C-CXX/48/196.c'
source_filename = "source-C-CXX/48/196.c"
target datalayout = "e-m:e-p270:32:32-p271:32:32-p272:64:64-i64:64-f80:128-n8:16:32:64-S128"
target triple = "x86_64-pc-linux-gnu"

@.str = private unnamed_addr constant [3 x i8] c"%s\00", align 1

; Function Attrs: nofree nounwind sspstrong uwtable
define dso_local i32 @main() local_unnamed_addr #0 {
  %1 = alloca [80 x i8], align 16
  %2 = getelementptr inbounds [80 x i8], [80 x i8]* %1, i64 0, i64 0
  call void @llvm.lifetime.start.p0i8(i64 80, i8* nonnull %2) #5
  %3 = call i32 (i8*, ...) @__isoc99_scanf(i8* getelementptr inbounds ([3 x i8], [3 x i8]* @.str, i64 0, i64 0), i8* nonnull %2)
  %4 = call i64 @strlen(i8* noundef nonnull %2) #6
  %5 = trunc i64 %4 to i32
  %6 = shl i64 %4, 32
  %7 = ashr exact i64 %6, 32
  %8 = getelementptr inbounds [80 x i8], [80 x i8]* %1, i64 0, i64 %7
  %9 = icmp slt i32 %5, 2
  br i1 %9, label %54, label %10

10:                                               ; preds = %0
  %11 = add i64 %4, 1
  %12 = and i64 %11, 4294967295
  br label %13

13:                                               ; preds = %10, %51
  %14 = phi i64 [ 2, %10 ], [ %52, %51 ]
  %15 = sub nsw i64 0, %14
  %16 = getelementptr inbounds i8, i8* %8, i64 %15
  %17 = icmp ugt i8* %2, %16
  br i1 %17, label %51, label %18

18:                                               ; preds = %13
  %19 = trunc i64 %14 to i32
  %20 = lshr i32 %19, 1
  %21 = add nsw i32 %20, -1
  %22 = zext i32 %21 to i64
  %23 = getelementptr [80 x i8], [80 x i8]* %1, i64 0, i64 %22
  br label %24

24:                                               ; preds = %18, %47
  %25 = phi i8* [ %50, %47 ], [ %23, %18 ]
  %26 = phi i8* [ %48, %47 ], [ %2, %18 ]
  %27 = getelementptr inbounds i8, i8* %26, i64 %14
  br label %28

28:                                               ; preds = %24, %35
  %29 = phi i8* [ %27, %24 ], [ %31, %35 ]
  %30 = phi i8* [ %26, %24 ], [ %36, %35 ]
  %31 = getelementptr inbounds i8, i8* %29, i64 -1
  %32 = load i8, i8* %30, align 1, !tbaa !5
  %33 = load i8, i8* %31, align 1, !tbaa !5
  %34 = icmp eq i8 %32, %33
  br i1 %34, label %35, label %47

35:                                               ; preds = %28
  %36 = getelementptr inbounds i8, i8* %30, i64 1
  %37 = icmp eq i8* %30, %25
  br i1 %37, label %38, label %28, !llvm.loop !8

38:                                               ; preds = %35, %38
  %39 = phi i8* [ %43, %38 ], [ %26, %35 ]
  %40 = load i8, i8* %39, align 1, !tbaa !5
  %41 = sext i8 %40 to i32
  %42 = call i32 @putchar(i32 %41)
  %43 = getelementptr inbounds i8, i8* %39, i64 1
  %44 = icmp ult i8* %43, %27
  br i1 %44, label %38, label %45, !llvm.loop !10

45:                                               ; preds = %38
  %46 = call i32 @putchar(i32 10)
  br label %47

47:                                               ; preds = %28, %45
  %48 = getelementptr inbounds i8, i8* %26, i64 1
  %49 = icmp ugt i8* %48, %16
  %50 = getelementptr i8, i8* %25, i64 1
  br i1 %49, label %51, label %24, !llvm.loop !11

51:                                               ; preds = %47, %13
  %52 = add nuw nsw i64 %14, 1
  %53 = icmp eq i64 %52, %12
  br i1 %53, label %54, label %13, !llvm.loop !12

54:                                               ; preds = %51, %0
  call void @llvm.lifetime.end.p0i8(i64 80, i8* nonnull %2) #5
  ret i32 0
}

; Function Attrs: argmemonly mustprogress nofree nosync nounwind willreturn
declare void @llvm.lifetime.start.p0i8(i64 immarg, i8* nocapture) #1

; Function Attrs: nofree nounwind
declare noundef i32 @__isoc99_scanf(i8* nocapture noundef readonly, ...) local_unnamed_addr #2

; Function Attrs: argmemonly mustprogress nofree nounwind readonly willreturn
declare i64 @strlen(i8* nocapture) local_unnamed_addr #3

; Function Attrs: argmemonly mustprogress nofree nosync nounwind willreturn
declare void @llvm.lifetime.end.p0i8(i64 immarg, i8* nocapture) #1

; Function Attrs: nofree nounwind
declare noundef i32 @putchar(i32 noundef) local_unnamed_addr #4


!llvm.module.flags = !{!0, !1, !2, !3}
!llvm.ident = !{!4}

!0 = !{i32 1, !"wchar_size", i32 4}
!1 = !{i32 7, !"PIC Level", i32 2}
!2 = !{i32 7, !"PIE Level", i32 2}
!3 = !{i32 7, !"uwtable", i32 1}
!4 = !{!"clang version 13.0.0"}
!5 = !{!6, !6, i64 0}
!6 = !{!"omnipotent char", !7, i64 0}
!7 = !{!"Simple C/C++ TBAA"}
!8 = distinct !{!8, !9}
!9 = !{!"llvm.loop.mustprogress"}
!10 = distinct !{!10, !9}
!11 = distinct !{!11, !9}
!12 = distinct !{!12, !9}
